target datalayout = "e-m:e-p270:32:32-p271:32:32-p272:64:64-i64:64-i128:128-f80:128-n8:16:32:64-S128"
target triple = "x86_64-pc-linux-gnu"

%struct.dtPoly = type { i32, [6 x i16], [6 x i16], i16, i8, i8 }
%struct.dtMeshTile = type { i32, i32, ptr, ptr, ptr, ptr, ptr, ptr, ptr, ptr, ptr, ptr, i32, i32, ptr }
%struct.dtLink = type { i32, i32, i8, i8, i8, i8 }
%class.dtNavMeshQuery = type { ptr, %"struct.dtNavMeshQuery::dtQueryData", ptr, ptr, ptr }
%"struct.dtNavMeshQuery::dtQueryData" = type { i32, ptr, float, i32, i32, [3 x float], [3 x float], ptr, i32, float }

; Function Attrs: mustprogress nounwind uwtable
define linkonce_odr dso_local noundef i32 @_Z5dtMinIiET_S0_S0_(i32 noundef %0, i32 noundef %1) #1 comdat {
  %3 = alloca i32, align 4
  %4 = alloca i32, align 4
  store i32 %0, ptr %3, align 4
  store i32 %1, ptr %4, align 4
  %5 = load i32, ptr %3, align 4
  %6 = load i32, ptr %4, align 4
  %7 = icmp slt i32 %5, %6
  br i1 %7, label %8, label %10

8:                                                ; preds = %2
  %9 = load i32, ptr %3, align 4
  br label %12

10:                                               ; preds = %2
  %11 = load i32, ptr %4, align 4
  br label %12

12:                                               ; preds = %10, %8
  %13 = phi i32 [ %9, %8 ], [ %11, %10 ]
  ret i32 %13
}

; Function Attrs: mustprogress nounwind uwtable
define linkonce_odr dso_local noundef zeroext i1 @_Z14dtStatusFailedj(i32 noundef %0) #1 comdat {
  %2 = alloca i32, align 4
  store i32 %0, ptr %2, align 4
  %3 = load i32, ptr %2, align 4
  %4 = and i32 %3, -2147483648
  %5 = icmp ne i32 %4, 0
  ret i1 %5
}

; Function Attrs: mustprogress nounwind uwtable
define linkonce_odr dso_local noundef ptr @_ZNK14dtNavMeshQuery18getAttachedNavMeshEv(ptr noundef nonnull align 8 dereferenceable(104) %0) #1 comdat align 2 {
  %2 = alloca ptr, align 8
  store ptr %0, ptr %2, align 8
  %3 = load ptr, ptr %2, align 8
  %4 = getelementptr inbounds %class.dtNavMeshQuery, ptr %3, i32 0, i32 0
  %5 = load ptr, ptr %4, align 8
  ret ptr %5
}

; Function Attrs: mustprogress uwtable
define internal noundef i32 @_ZL14fixupShortcutsPjiP14dtNavMeshQuery(ptr noundef %0, i32 noundef %1, ptr noundef %2) #0 {
  %4 = alloca i32, align 4
  %5 = alloca ptr, align 8
  %6 = alloca i32, align 4
  %7 = alloca ptr, align 8
  %8 = alloca [16 x i32], align 16
  %9 = alloca i32, align 4
  %10 = alloca ptr, align 8
  %11 = alloca ptr, align 8
  %12 = alloca i32, align 4
  %13 = alloca ptr, align 8
  %14 = alloca i32, align 4
  %15 = alloca i32, align 4
  %16 = alloca i32, align 4
  %17 = alloca i32, align 4
  %18 = alloca i32, align 4
  store ptr %0, ptr %5, align 8
  store i32 %1, ptr %6, align 4
  store ptr %2, ptr %7, align 8
  %19 = load i32, ptr %6, align 4
  %20 = icmp slt i32 %19, 3
  br i1 %20, label %21, label %23

21:                                               ; preds = %3
  %22 = load i32, ptr %6, align 4
  store i32 %22, ptr %4, align 4
  br label %142

23:                                               ; preds = %3
  store i32 0, ptr %9, align 4
  store ptr null, ptr %10, align 8
  store ptr null, ptr %11, align 8
  %24 = load ptr, ptr %7, align 8
  %25 = call noundef ptr @_ZNK14dtNavMeshQuery18getAttachedNavMeshEv(ptr noundef nonnull align 8 dereferenceable(104) %24)
  %26 = load ptr, ptr %5, align 8
  %27 = getelementptr inbounds i32, ptr %26, i64 0
  %28 = load i32, ptr %27, align 4
  %29 = call noundef i32 @_ZNK9dtNavMesh19getTileAndPolyByRefEjPPK10dtMeshTilePPK6dtPoly(ptr noundef nonnull align 8 dereferenceable(100) %25, i32 noundef %28, ptr noundef %10, ptr noundef %11)
  %30 = call noundef zeroext i1 @_Z14dtStatusFailedj(i32 noundef %29)
  br i1 %30, label %31, label %33

31:                                               ; preds = %23
  %32 = load i32, ptr %6, align 4
  store i32 %32, ptr %4, align 4
  br label %142

33:                                               ; preds = %23
  %34 = load ptr, ptr %11, align 8
  %35 = getelementptr inbounds %struct.dtPoly, ptr %34, i32 0, i32 0
  %36 = load i32, ptr %35, align 4
  store i32 %36, ptr %12, align 4
  br label %37

37:                                               ; preds = %64, %33
  %38 = load i32, ptr %12, align 4
  %39 = icmp ne i32 %38, -1
  br i1 %39, label %40, label %73

40:                                               ; preds = %37
  %41 = load ptr, ptr %10, align 8
  %42 = getelementptr inbounds %struct.dtMeshTile, ptr %41, i32 0, i32 5
  %43 = load ptr, ptr %42, align 8
  %44 = load i32, ptr %12, align 4
  %45 = zext i32 %44 to i64
  %46 = getelementptr inbounds %struct.dtLink, ptr %43, i64 %45
  store ptr %46, ptr %13, align 8
  %47 = load ptr, ptr %13, align 8
  %48 = getelementptr inbounds %struct.dtLink, ptr %47, i32 0, i32 0
  %49 = load i32, ptr %48, align 4
  %50 = icmp ne i32 %49, 0
  br i1 %50, label %51, label %63

51:                                               ; preds = %40
  %52 = load i32, ptr %9, align 4
  %53 = icmp slt i32 %52, 16
  br i1 %53, label %54, label %62

54:                                               ; preds = %51
  %55 = load ptr, ptr %13, align 8
  %56 = getelementptr inbounds %struct.dtLink, ptr %55, i32 0, i32 0
  %57 = load i32, ptr %56, align 4
  %58 = load i32, ptr %9, align 4
  %59 = add nsw i32 %58, 1
  store i32 %59, ptr %9, align 4
  %60 = sext i32 %58 to i64
  %61 = getelementptr inbounds [16 x i32], ptr %8, i64 0, i64 %60
  store i32 %57, ptr %61, align 4
  br label %62

62:                                               ; preds = %54, %51
  br label %63

63:                                               ; preds = %62, %40
  br label %64

64:                                               ; preds = %63
  %65 = load ptr, ptr %10, align 8
  %66 = getelementptr inbounds %struct.dtMeshTile, ptr %65, i32 0, i32 5
  %67 = load ptr, ptr %66, align 8
  %68 = load i32, ptr %12, align 4
  %69 = zext i32 %68 to i64
  %70 = getelementptr inbounds %struct.dtLink, ptr %67, i64 %69
  %71 = getelementptr inbounds %struct.dtLink, ptr %70, i32 0, i32 1
  %72 = load i32, ptr %71, align 4
  store i32 %72, ptr %12, align 4
  br label %37, !llvm.loop !15

73:                                               ; preds = %37
  store i32 0, ptr %14, align 4
  %74 = load i32, ptr %6, align 4
  %75 = call noundef i32 @_Z5dtMinIiET_S0_S0_(i32 noundef 6, i32 noundef %74)
  %76 = sub nsw i32 %75, 1
  store i32 %76, ptr %15, align 4
  br label %77

77:                                               ; preds = %108, %73
  %78 = load i32, ptr %15, align 4
  %79 = icmp sgt i32 %78, 1
  br i1 %79, label %80, label %83

80:                                               ; preds = %77
  %81 = load i32, ptr %14, align 4
  %82 = icmp eq i32 %81, 0
  br label %83

83:                                               ; preds = %80, %77
  %84 = phi i1 [ false, %77 ], [ %82, %80 ]
  br i1 %84, label %85, label %111

85:                                               ; preds = %83
  store i32 0, ptr %16, align 4
  br label %86

86:                                               ; preds = %104, %85
  %87 = load i32, ptr %16, align 4
  %88 = load i32, ptr %9, align 4
  %89 = icmp slt i32 %87, %88
  br i1 %89, label %90, label %107

90:                                               ; preds = %86
  %91 = load ptr, ptr %5, align 8
  %92 = load i32, ptr %15, align 4
  %93 = sext i32 %92 to i64
  %94 = getelementptr inbounds i32, ptr %91, i64 %93
  %95 = load i32, ptr %94, align 4
  %96 = load i32, ptr %16, align 4
  %97 = sext i32 %96 to i64
  %98 = getelementptr inbounds [16 x i32], ptr %8, i64 0, i64 %97
  %99 = load i32, ptr %98, align 4
  %100 = icmp eq i32 %95, %99
  br i1 %100, label %101, label %103

101:                                              ; preds = %90
  %102 = load i32, ptr %15, align 4
  store i32 %102, ptr %14, align 4
  br label %107

103:                                              ; preds = %90
  br label %104

104:                                              ; preds = %103
  %105 = load i32, ptr %16, align 4
  %106 = add nsw i32 %105, 1
  store i32 %106, ptr %16, align 4
  br label %86, !llvm.loop !16

107:                                              ; preds = %101, %86
  br label %108

108:                                              ; preds = %107
  %109 = load i32, ptr %15, align 4
  %110 = add nsw i32 %109, -1
  store i32 %110, ptr %15, align 4
  br label %77, !llvm.loop !17

111:                                              ; preds = %83
  %112 = load i32, ptr %14, align 4
  %113 = icmp sgt i32 %112, 1
  br i1 %113, label %114, label %140

114:                                              ; preds = %111
  %115 = load i32, ptr %14, align 4
  %116 = sub nsw i32 %115, 1
  store i32 %116, ptr %17, align 4
  %117 = load i32, ptr %17, align 4
  %118 = load i32, ptr %6, align 4
  %119 = sub nsw i32 %118, %117
  store i32 %119, ptr %6, align 4
  store i32 1, ptr %18, align 4
  br label %120

120:                                              ; preds = %136, %114
  %121 = load i32, ptr %18, align 4
  %122 = load i32, ptr %6, align 4
  %123 = icmp slt i32 %121, %122
  br i1 %123, label %124, label %139

124:                                              ; preds = %120
  %125 = load ptr, ptr %5, align 8
  %126 = load i32, ptr %18, align 4
  %127 = load i32, ptr %17, align 4
  %128 = add nsw i32 %126, %127
  %129 = sext i32 %128 to i64
  %130 = getelementptr inbounds i32, ptr %125, i64 %129
  %131 = load i32, ptr %130, align 4
  %132 = load ptr, ptr %5, align 8
  %133 = load i32, ptr %18, align 4
  %134 = sext i32 %133 to i64
  %135 = getelementptr inbounds i32, ptr %132, i64 %134
  store i32 %131, ptr %135, align 4
  br label %136

136:                                              ; preds = %124
  %137 = load i32, ptr %18, align 4
  %138 = add nsw i32 %137, 1
  store i32 %138, ptr %18, align 4
  br label %120, !llvm.loop !18

139:                                              ; preds = %120
  br label %140

140:                                              ; preds = %139, %111
  %141 = load i32, ptr %6, align 4
  store i32 %141, ptr %4, align 4
  br label %142

142:                                              ; preds = %140, %31, %21
  %143 = load i32, ptr %4, align 4
  ret i32 %143
}