; Function Attrs: mustprogress uwtable
define internal fastcc noundef i32 @_ZL14fixupShortcutsPjiP14dtNavMeshQuery(ptr nocapture noundef %0, i32 noundef %1, ptr nocapture noundef readonly %2) unnamed_addr #0 {
  %4 = alloca [16 x i32], align 16
  %5 = alloca ptr, align 8
  %6 = alloca ptr, align 8
  %7 = icmp slt i32 %1, 3
  br i1 %7, label %.loopexit, label %8

8:                                                ; preds = %3
  store ptr null, ptr %5, align 8
  store ptr null, ptr %6, align 8
  %9 = load ptr, ptr %2, align 8
  %10 = load i32, ptr %0, align 4
  %11 = call noundef i32 @_ZNK9dtNavMesh19getTileAndPolyByRefEjPPK10dtMeshTilePPK6dtPoly(ptr noundef nonnull align 8 dereferenceable(100) %9, i32 noundef %10, ptr noundef nonnull %5, ptr noundef nonnull %6)
  %12 = icmp slt i32 %11, 0
  br i1 %12, label %.loopexit, label %13

13:                                               ; preds = %8
  %14 = load ptr, ptr %6, align 8
  %.04249 = load i32, ptr %14, align 4
  %.not50 = icmp eq i32 %.04249, -1
  br i1 %.not50, label %.loopexit, label %.lr.ph

.lr.ph:                                           ; preds = %13
  %15 = load ptr, ptr %5, align 8
  %16 = getelementptr inbounds i8, ptr %15, i64 32
  %17 = load ptr, ptr %16, align 8
  br label %18

18:                                               ; preds = %.lr.ph, %28
  %.04252 = phi i32 [ %.04249, %.lr.ph ], [ %.042, %28 ]
  %.04351 = phi i32 [ 0, %.lr.ph ], [ %.144, %28 ]
  %19 = zext i32 %.04252 to i64
  %20 = getelementptr inbounds %struct.dtLink, ptr %17, i64 %19
  %21 = load i32, ptr %20, align 4
  %22 = icmp ne i32 %21, 0
  %23 = icmp slt i32 %.04351, 16
  %or.cond = select i1 %22, i1 %23, i1 false
  br i1 %or.cond, label %24, label %28

24:                                               ; preds = %18
  %25 = add nsw i32 %.04351, 1
  %26 = sext i32 %.04351 to i64
  %27 = getelementptr inbounds [16 x i32], ptr %4, i64 0, i64 %26
  store i32 %21, ptr %27, align 4
  br label %28

28:                                               ; preds = %18, %24
  %.144 = phi i32 [ %25, %24 ], [ %.04351, %18 ]
  %29 = getelementptr inbounds %struct.dtLink, ptr %17, i64 %19, i32 1
  %.042 = load i32, ptr %29, align 4
  %.not = icmp eq i32 %.042, -1
  br i1 %.not, label %.preheader.lr.ph, label %18, !llvm.loop !15

.preheader.lr.ph:                                 ; preds = %28
  %30 = icmp sgt i32 %.144, 0
  br i1 %30, label %.preheader.us.preheader, label %.loopexit

.preheader.us.preheader:                          ; preds = %.preheader.lr.ph
  %31 = call noundef i32 @llvm.smin.i32(i32 %1, i32 6)
  %.03959 = add nsw i32 %31, -1
  %32 = zext i32 %.03959 to i64
  %wide.trip.count = zext nneg i32 %.144 to i64
  br label %.preheader.us

.preheader.us:                                    ; preds = %.preheader.us.preheader, %._crit_edge55.us
  %indvars.iv68 = phi i64 [ %32, %.preheader.us.preheader ], [ %indvars.iv.next69, %._crit_edge55.us ]
  %33 = getelementptr inbounds i32, ptr %0, i64 %indvars.iv68
  %34 = load i32, ptr %33, align 4
  %35 = trunc i64 %indvars.iv68 to i32
  br label %37

36:                                               ; preds = %37
  %indvars.iv.next = add nuw nsw i64 %indvars.iv, 1
  %exitcond.not = icmp eq i64 %indvars.iv.next, %wide.trip.count
  br i1 %exitcond.not, label %._crit_edge55.us, label %37, !llvm.loop !16

37:                                               ; preds = %.preheader.us, %36
  %indvars.iv = phi i64 [ 0, %.preheader.us ], [ %indvars.iv.next, %36 ]
  %38 = getelementptr inbounds [16 x i32], ptr %4, i64 0, i64 %indvars.iv
  %39 = load i32, ptr %38, align 4
  %40 = icmp eq i32 %34, %39
  br i1 %40, label %._crit_edge55.us, label %36

._crit_edge55.us:                                 ; preds = %36, %37
  %.1.us = phi i32 [ %35, %37 ], [ 0, %36 ]
  %indvars.iv.next69 = add nsw i64 %indvars.iv68, -1
  %41 = icmp sgt i32 %35, 2
  %42 = icmp eq i32 %.1.us, 0
  %43 = and i1 %41, %42
  br i1 %43, label %.preheader.us, label %._crit_edge61, !llvm.loop !17

._crit_edge61:                                    ; preds = %._crit_edge55.us
  %44 = icmp sgt i32 %.1.us, 1
  br i1 %44, label %45, label %.loopexit

45:                                               ; preds = %._crit_edge61
  %46 = add nsw i32 %.1.us, -1
  %47 = sub nsw i32 %1, %46
  %48 = icmp sgt i32 %47, 1
  br i1 %48, label %.lr.ph65.preheader, label %.loopexit

.lr.ph65.preheader:                               ; preds = %45
  %49 = zext nneg i32 %46 to i64
  %wide.trip.count74 = zext nneg i32 %47 to i64
  %invariant.gep = getelementptr i32, ptr %0, i64 %49
  br label %.lr.ph65

.lr.ph65:                                         ; preds = %.lr.ph65.preheader, %.lr.ph65
  %indvars.iv71 = phi i64 [ 1, %.lr.ph65.preheader ], [ %indvars.iv.next72, %.lr.ph65 ]
  %gep = getelementptr i32, ptr %invariant.gep, i64 %indvars.iv71
  %50 = load i32, ptr %gep, align 4
  %51 = getelementptr inbounds i32, ptr %0, i64 %indvars.iv71
  store i32 %50, ptr %51, align 4
  %indvars.iv.next72 = add nuw nsw i64 %indvars.iv71, 1
  %exitcond75.not = icmp eq i64 %indvars.iv.next72, %wide.trip.count74
  br i1 %exitcond75.not, label %.loopexit, label %.lr.ph65, !llvm.loop !18

.loopexit:                                        ; preds = %.lr.ph65, %13, %.preheader.lr.ph, %45, %._crit_edge61, %8, %3
  %.037 = phi i32 [ %1, %3 ], [ %1, %8 ], [ %1, %._crit_edge61 ], [ %47, %45 ], [ %1, %.preheader.lr.ph ], [ %1, %13 ], [ %47, %.lr.ph65 ]
  ret i32 %.037
}